target datalayout = "e-m:e-p270:32:32-p271:32:32-p272:64:64-i64:64-i128:128-f80:128-n8:16:32:64-S128"
target triple = "x86_64-pc-linux-gnu"

; Function Attrs: nounwind uwtable
define void @Abc_MergeSort(ptr noundef %0, i32 noundef %1) #0 {
  %3 = alloca ptr, align 8
  %4 = alloca i32, align 4
  %5 = alloca ptr, align 8
  store ptr %0, ptr %3, align 8
  store i32 %1, ptr %4, align 4
  %6 = load i32, ptr %4, align 4
  %7 = icmp slt i32 %6, 2
  br i1 %7, label %8, label %9

8:                                                ; preds = %2
  br label %21

9:                                                ; preds = %2
  %10 = load i32, ptr %4, align 4
  %11 = sext i32 %10 to i64
  %12 = mul i64 4, %11
  %13 = call noalias ptr @malloc(i64 noundef %12) #8
  store ptr %13, ptr %5, align 8
  %14 = load ptr, ptr %3, align 8
  %15 = load ptr, ptr %3, align 8
  %16 = load i32, ptr %4, align 4
  %17 = sext i32 %16 to i64
  %18 = getelementptr inbounds i32, ptr %15, i64 %17
  %19 = load ptr, ptr %5, align 8
  call void @Abc_Sort_rec(ptr noundef %14, ptr noundef %18, ptr noundef %19)
  %20 = load ptr, ptr %5, align 8
  call void @free(ptr noundef %20) #9
  br label %21

21:                                               ; preds = %9, %8
  ret void
}