; Function Attrs: nounwind uwtable
define void @Abc_MergeSort(ptr noundef %0, i32 noundef %1) local_unnamed_addr #3 {
  %3 = icmp slt i32 %1, 2
  br i1 %3, label %9, label %4

4:                                                ; preds = %2
  %5 = zext nneg i32 %1 to i64
  %6 = shl nuw nsw i64 %5, 2
  %7 = tail call noalias ptr @malloc(i64 noundef %6) #19
  %8 = getelementptr inbounds nuw i32, ptr %0, i64 %5
  tail call void @Abc_Sort_rec(ptr noundef %0, ptr noundef nonnull %8, ptr noundef %7)
  tail call void @free(ptr noundef %7) #20
  br label %9

9:                                                ; preds = %2, %4
  ret void
}